target datalayout = "e-m:e-p270:32:32-p271:32:32-p272:64:64-i64:64-i128:128-f80:128-n8:16:32:64-S128"
target triple = "x86_64-pc-linux-gnu"

%struct._zend_array = type { %struct._zend_refcounted_h, %union.anon.0, i32, %union.anon.1, i32, i32, i32, i32, i64, ptr }
%struct._zend_refcounted_h = type { i32, %union.anon }
%union.anon = type { i32 }
%union.anon.0 = type { i32 }
%union.anon.1 = type { ptr }
%struct._phar_archive_data = type { ptr, i32, ptr, i32, ptr, i32, [12 x i8], i64, %struct._zend_array, %struct._zend_array, %struct._zend_array, i32, i32, i32, ptr, ptr, i32, i32, i32, ptr, %struct._phar_metadata_tracker, i32, i16 }
%struct._phar_metadata_tracker = type { %struct._zval_struct, ptr }
%struct._zval_struct = type { %union._zend_value, %union.anon.3, %union.anon.6 }
%union._zend_value = type { i64 }
%union.anon.3 = type { i32 }
%union.anon.6 = type { i32 }
%struct._zend_string = type { %struct._zend_refcounted_h, i64, i64, [1 x i8] }
%struct._phar_entry_info = type { i32, i32, i32, i32, i32, i32, %struct._phar_metadata_tracker, ptr, i32, i64, i64, i64, ptr, ptr, i32, ptr, ptr, ptr, i8, i32, i16, i16 }
%struct._phar_entry_data = type { ptr, ptr, i64, i64, ptr }
%struct._php_stream = type { ptr, ptr, %struct._php_stream_filter_chain, %struct._php_stream_filter_chain, ptr, ptr, %struct._zval_struct, i16, [16 x i8], i32, ptr, ptr, ptr, ptr, i64, ptr, i64, i64, i64, i64, ptr }
%struct._php_stream_filter_chain = type { ptr, ptr, ptr }

@.str.20 = private unnamed_addr constant [63 x i8] c"phar error: Could not write %d characters to \22%s\22 in phar \22%s\22\00", align 1

; Function Attrs: nounwind uwtable
define internal i64 @phar_stream_write(ptr noundef %0, ptr noundef %1, i64 noundef %2) #0 {
  %4 = alloca i64, align 8
  %5 = alloca ptr, align 8
  %6 = alloca ptr, align 8
  %7 = alloca i64, align 8
  %8 = alloca ptr, align 8
  %9 = alloca i32, align 4
  store ptr %0, ptr %5, align 8, !tbaa !77
  store ptr %1, ptr %6, align 8, !tbaa !9
  store i64 %2, ptr %7, align 8, !tbaa !20
  call void @llvm.lifetime.start.p0(i64 8, ptr %8) #14
  %10 = load ptr, ptr %5, align 8, !tbaa !77
  %11 = getelementptr inbounds nuw %struct._php_stream, ptr %10, i32 0, i32 1
  %12 = load ptr, ptr %11, align 8, !tbaa !118
  store ptr %12, ptr %8, align 8, !tbaa !75
  %13 = load ptr, ptr %8, align 8, !tbaa !75
  %14 = getelementptr inbounds nuw %struct._phar_entry_data, ptr %13, i32 0, i32 1
  %15 = load ptr, ptr %14, align 8, !tbaa !96
  %16 = load ptr, ptr %8, align 8, !tbaa !75
  %17 = getelementptr inbounds nuw %struct._phar_entry_data, ptr %16, i32 0, i32 2
  %18 = load i64, ptr %17, align 8, !tbaa !125
  %19 = call i32 @_php_stream_seek(ptr noundef %15, i64 noundef %18, i32 noundef 0)
  %20 = load i64, ptr %7, align 8, !tbaa !20
  %21 = load ptr, ptr %8, align 8, !tbaa !75
  %22 = getelementptr inbounds nuw %struct._phar_entry_data, ptr %21, i32 0, i32 1
  %23 = load ptr, ptr %22, align 8, !tbaa !96
  %24 = load ptr, ptr %6, align 8, !tbaa !9
  %25 = load i64, ptr %7, align 8, !tbaa !20
  %26 = call i64 @_php_stream_write(ptr noundef %23, ptr noundef %24, i64 noundef %25)
  %27 = icmp ne i64 %20, %26
  br i1 %27, label %28, label %49

28:                                               ; preds = %3
  %29 = load ptr, ptr %5, align 8, !tbaa !77
  %30 = getelementptr inbounds nuw %struct._php_stream, ptr %29, i32 0, i32 4
  %31 = load ptr, ptr %30, align 8, !tbaa !126
  %32 = load ptr, ptr %5, align 8, !tbaa !77
  %33 = getelementptr inbounds nuw %struct._php_stream, ptr %32, i32 0, i32 9
  %34 = load i32, ptr %33, align 4, !tbaa !127
  %35 = load i64, ptr %7, align 8, !tbaa !20
  %36 = trunc i64 %35 to i32
  %37 = load ptr, ptr %8, align 8, !tbaa !75
  %38 = getelementptr inbounds nuw %struct._phar_entry_data, ptr %37, i32 0, i32 4
  %39 = load ptr, ptr %38, align 8, !tbaa !84
  %40 = getelementptr inbounds nuw %struct._phar_entry_info, ptr %39, i32 0, i32 7
  %41 = load ptr, ptr %40, align 8, !tbaa !91
  %42 = getelementptr inbounds nuw %struct._zend_string, ptr %41, i32 0, i32 3
  %43 = getelementptr inbounds [1 x i8], ptr %42, i64 0, i64 0
  %44 = load ptr, ptr %8, align 8, !tbaa !75
  %45 = getelementptr inbounds nuw %struct._phar_entry_data, ptr %44, i32 0, i32 0
  %46 = load ptr, ptr %45, align 8, !tbaa !89
  %47 = getelementptr inbounds nuw %struct._phar_archive_data, ptr %46, i32 0, i32 0
  %48 = load ptr, ptr %47, align 8, !tbaa !90
  call void (ptr, i32, ptr, ...) @php_stream_wrapper_log_error(ptr noundef %31, i32 noundef %34, ptr noundef @.str.20, i32 noundef %36, ptr noundef %43, ptr noundef %48)
  store i64 -1, ptr %4, align 8
  store i32 1, ptr %9, align 4
  br label %102

49:                                               ; preds = %3
  %50 = load ptr, ptr %8, align 8, !tbaa !75
  %51 = getelementptr inbounds nuw %struct._phar_entry_data, ptr %50, i32 0, i32 1
  %52 = load ptr, ptr %51, align 8, !tbaa !96
  %53 = call i64 @_php_stream_tell(ptr noundef %52)
  %54 = load ptr, ptr %8, align 8, !tbaa !75
  %55 = getelementptr inbounds nuw %struct._phar_entry_data, ptr %54, i32 0, i32 2
  store i64 %53, ptr %55, align 8, !tbaa !125
  %56 = load ptr, ptr %8, align 8, !tbaa !75
  %57 = getelementptr inbounds nuw %struct._phar_entry_data, ptr %56, i32 0, i32 2
  %58 = load i64, ptr %57, align 8, !tbaa !125
  %59 = load ptr, ptr %8, align 8, !tbaa !75
  %60 = getelementptr inbounds nuw %struct._phar_entry_data, ptr %59, i32 0, i32 4
  %61 = load ptr, ptr %60, align 8, !tbaa !84
  %62 = getelementptr inbounds nuw %struct._phar_entry_info, ptr %61, i32 0, i32 0
  %63 = load i32, ptr %62, align 8, !tbaa !47
  %64 = zext i32 %63 to i64
  %65 = icmp sgt i64 %58, %64
  br i1 %65, label %66, label %75

66:                                               ; preds = %49
  %67 = load ptr, ptr %8, align 8, !tbaa !75
  %68 = getelementptr inbounds nuw %struct._phar_entry_data, ptr %67, i32 0, i32 2
  %69 = load i64, ptr %68, align 8, !tbaa !125
  %70 = trunc i64 %69 to i32
  %71 = load ptr, ptr %8, align 8, !tbaa !75
  %72 = getelementptr inbounds nuw %struct._phar_entry_data, ptr %71, i32 0, i32 4
  %73 = load ptr, ptr %72, align 8, !tbaa !84
  %74 = getelementptr inbounds nuw %struct._phar_entry_info, ptr %73, i32 0, i32 0
  store i32 %70, ptr %74, align 8, !tbaa !47
  br label %75

75:                                               ; preds = %66, %49
  %76 = load ptr, ptr %8, align 8, !tbaa !75
  %77 = getelementptr inbounds nuw %struct._phar_entry_data, ptr %76, i32 0, i32 4
  %78 = load ptr, ptr %77, align 8, !tbaa !84
  %79 = getelementptr inbounds nuw %struct._phar_entry_info, ptr %78, i32 0, i32 0
  %80 = load i32, ptr %79, align 8, !tbaa !47
  %81 = load ptr, ptr %8, align 8, !tbaa !75
  %82 = getelementptr inbounds nuw %struct._phar_entry_data, ptr %81, i32 0, i32 4
  %83 = load ptr, ptr %82, align 8, !tbaa !84
  %84 = getelementptr inbounds nuw %struct._phar_entry_info, ptr %83, i32 0, i32 2
  store i32 %80, ptr %84, align 8, !tbaa !86
  %85 = load ptr, ptr %8, align 8, !tbaa !75
  %86 = getelementptr inbounds nuw %struct._phar_entry_data, ptr %85, i32 0, i32 4
  %87 = load ptr, ptr %86, align 8, !tbaa !84
  %88 = getelementptr inbounds nuw %struct._phar_entry_info, ptr %87, i32 0, i32 4
  %89 = load i32, ptr %88, align 8, !tbaa !56
  %90 = load ptr, ptr %8, align 8, !tbaa !75
  %91 = getelementptr inbounds nuw %struct._phar_entry_data, ptr %90, i32 0, i32 4
  %92 = load ptr, ptr %91, align 8, !tbaa !84
  %93 = getelementptr inbounds nuw %struct._phar_entry_info, ptr %92, i32 0, i32 5
  store i32 %89, ptr %93, align 4, !tbaa !128
  %94 = load ptr, ptr %8, align 8, !tbaa !75
  %95 = getelementptr inbounds nuw %struct._phar_entry_data, ptr %94, i32 0, i32 4
  %96 = load ptr, ptr %95, align 8, !tbaa !84
  %97 = getelementptr inbounds nuw %struct._phar_entry_info, ptr %96, i32 0, i32 21
  %98 = load i16, ptr %97, align 2
  %99 = and i16 %98, -3
  %100 = or i16 %99, 2
  store i16 %100, ptr %97, align 2
  %101 = load i64, ptr %7, align 8, !tbaa !20
  store i64 %101, ptr %4, align 8
  store i32 1, ptr %9, align 4
  br label %102

102:                                              ; preds = %75, %28
  call void @llvm.lifetime.end.p0(i64 8, ptr %8) #14
  %103 = load i64, ptr %4, align 8
  ret i64 %103
}