; Function Attrs: nounwind uwtable
define internal noundef i64 @phar_stream_write(ptr noundef readonly captures(none) %0, ptr noundef %1, i64 noundef %2) #0 {
  %4 = getelementptr inbounds nuw i8, ptr %0, i64 8
  %5 = load ptr, ptr %4, align 8, !tbaa !93
  %6 = getelementptr inbounds nuw i8, ptr %5, i64 8
  %7 = load ptr, ptr %6, align 8, !tbaa !78
  %8 = getelementptr inbounds nuw i8, ptr %5, i64 16
  %9 = load i64, ptr %8, align 8, !tbaa !101
  %10 = tail call i32 @_php_stream_seek(ptr noundef %7, i64 noundef %9, i32 noundef 0) #15
  %11 = load ptr, ptr %6, align 8, !tbaa !78
  %12 = tail call i64 @_php_stream_write(ptr noundef %11, ptr noundef %1, i64 noundef %2) #15
  %.not = icmp eq i64 %2, %12
  br i1 %.not, label %26, label %13

13:                                               ; preds = %3
  %14 = getelementptr inbounds nuw i8, ptr %0, i64 64
  %15 = load ptr, ptr %14, align 8, !tbaa !102
  %16 = getelementptr inbounds nuw i8, ptr %0, i64 116
  %17 = load i32, ptr %16, align 4, !tbaa !103
  %18 = trunc i64 %2 to i32
  %19 = getelementptr inbounds nuw i8, ptr %5, i64 32
  %20 = load ptr, ptr %19, align 8, !tbaa !63
  %21 = getelementptr inbounds nuw i8, ptr %20, i64 48
  %22 = load ptr, ptr %21, align 8, !tbaa !71
  %23 = getelementptr inbounds nuw i8, ptr %22, i64 24
  %24 = load ptr, ptr %5, align 8, !tbaa !68
  %25 = load ptr, ptr %24, align 8, !tbaa !69
  tail call void (ptr, i32, ptr, ...) @php_stream_wrapper_log_error(ptr noundef %15, i32 noundef %17, ptr noundef nonnull @.str.20, i32 noundef %18, ptr noundef nonnull %23, ptr noundef %25) #15
  br label %45

26:                                               ; preds = %3
  %27 = load ptr, ptr %6, align 8, !tbaa !78
  %28 = tail call i64 @_php_stream_tell(ptr noundef %27) #15
  store i64 %28, ptr %8, align 8, !tbaa !101
  %29 = getelementptr inbounds nuw i8, ptr %5, i64 32
  %30 = load ptr, ptr %29, align 8, !tbaa !63
  %31 = load i32, ptr %30, align 8, !tbaa !34
  %32 = zext i32 %31 to i64
  %33 = icmp sgt i64 %28, %32
  br i1 %33, label %34, label %36

34:                                               ; preds = %26
  %35 = trunc i64 %28 to i32
  store i32 %35, ptr %30, align 8, !tbaa !34
  br label %36

36:                                               ; preds = %34, %26
  %37 = phi i32 [ %35, %34 ], [ %31, %26 ]
  %38 = getelementptr inbounds nuw i8, ptr %30, i64 8
  store i32 %37, ptr %38, align 8, !tbaa !66
  %39 = getelementptr inbounds nuw i8, ptr %30, i64 16
  %40 = load i32, ptr %39, align 8, !tbaa !43
  %41 = getelementptr inbounds nuw i8, ptr %30, i64 20
  store i32 %40, ptr %41, align 4, !tbaa !104
  %42 = getelementptr inbounds nuw i8, ptr %30, i64 146
  %43 = load i16, ptr %42, align 2
  %44 = or i16 %43, 2
  store i16 %44, ptr %42, align 2
  br label %45

45:                                               ; preds = %36, %13
  %.0 = phi i64 [ -1, %13 ], [ %2, %36 ]
  ret i64 %.0
}